target datalayout = "e-m:e-p270:32:32-p271:32:32-p272:64:64-i64:64-i128:128-f80:128-n8:16:32:64-S128"
target triple = "x86_64-pc-linux-gnu"

%struct.TuplesortPublic = type { ptr, ptr, ptr, ptr, ptr, ptr, ptr, ptr, ptr, i8, i32, ptr, ptr, i32, i8, ptr }
%struct.TuplesortClusterArg = type { ptr, ptr, ptr }
%struct.EState = type { i32, i32, ptr, ptr, ptr, i32, ptr, ptr, ptr, ptr, ptr, ptr, ptr, ptr, ptr, ptr, i32, ptr, ptr, ptr, ptr, ptr, ptr, ptr, ptr, ptr, ptr, i64, i64, i32, i32, i8, ptr, ptr, ptr, ptr, ptr, i8, i32, i32, ptr, i32, ptr, ptr, ptr, ptr }
%struct.ExprContext = type { i32, ptr, ptr, ptr, ptr, ptr, ptr, ptr, ptr, ptr, i64, i8, i64, i8, ptr, ptr, ptr, ptr }

; Function Attrs: nounwind uwtable
define internal void @freestate_cluster(ptr noundef %0) #0 {
  %2 = alloca ptr, align 8
  %3 = alloca ptr, align 8
  %4 = alloca ptr, align 8
  %5 = alloca ptr, align 8
  store ptr %0, ptr %2, align 8
  call void @llvm.lifetime.start.p0(i64 8, ptr %3) #6
  %6 = load ptr, ptr %2, align 8
  store ptr %6, ptr %3, align 8
  call void @llvm.lifetime.start.p0(i64 8, ptr %4) #6
  %7 = load ptr, ptr %3, align 8
  %8 = getelementptr inbounds nuw %struct.TuplesortPublic, ptr %7, i32 0, i32 15
  %9 = load ptr, ptr %8, align 8
  store ptr %9, ptr %4, align 8
  %10 = load ptr, ptr %4, align 8
  %11 = getelementptr inbounds nuw %struct.TuplesortClusterArg, ptr %10, i32 0, i32 2
  %12 = load ptr, ptr %11, align 8
  %13 = icmp ne ptr %12, null
  br i1 %13, label %14, label %40

14:                                               ; preds = %1
  call void @llvm.lifetime.start.p0(i64 8, ptr %5) #6
  %15 = load ptr, ptr %4, align 8
  %16 = getelementptr inbounds nuw %struct.TuplesortClusterArg, ptr %15, i32 0, i32 2
  %17 = load ptr, ptr %16, align 8
  %18 = getelementptr inbounds nuw %struct.EState, ptr %17, i32 0, i32 35
  %19 = load ptr, ptr %18, align 8
  %20 = icmp ne ptr %19, null
  br i1 %20, label %21, label %27

21:                                               ; preds = %14
  %22 = load ptr, ptr %4, align 8
  %23 = getelementptr inbounds nuw %struct.TuplesortClusterArg, ptr %22, i32 0, i32 2
  %24 = load ptr, ptr %23, align 8
  %25 = getelementptr inbounds nuw %struct.EState, ptr %24, i32 0, i32 35
  %26 = load ptr, ptr %25, align 8
  br label %32

27:                                               ; preds = %14
  %28 = load ptr, ptr %4, align 8
  %29 = getelementptr inbounds nuw %struct.TuplesortClusterArg, ptr %28, i32 0, i32 2
  %30 = load ptr, ptr %29, align 8
  %31 = call ptr @MakePerTupleExprContext(ptr noundef %30)
  br label %32

32:                                               ; preds = %27, %21
  %33 = phi ptr [ %26, %21 ], [ %31, %27 ]
  store ptr %33, ptr %5, align 8
  %34 = load ptr, ptr %5, align 8
  %35 = getelementptr inbounds nuw %struct.ExprContext, ptr %34, i32 0, i32 1
  %36 = load ptr, ptr %35, align 8
  call void @ExecDropSingleTupleTableSlot(ptr noundef %36)
  %37 = load ptr, ptr %4, align 8
  %38 = getelementptr inbounds nuw %struct.TuplesortClusterArg, ptr %37, i32 0, i32 2
  %39 = load ptr, ptr %38, align 8
  call void @FreeExecutorState(ptr noundef %39)
  call void @llvm.lifetime.end.p0(i64 8, ptr %5) #6
  br label %40

40:                                               ; preds = %32, %1
  call void @llvm.lifetime.end.p0(i64 8, ptr %4) #6
  call void @llvm.lifetime.end.p0(i64 8, ptr %3) #6
  ret void
}