; Function Attrs: nounwind uwtable
define internal void @freestate_cluster(ptr noundef readonly captures(none) %0) #0 {
  %2 = getelementptr inbounds nuw i8, ptr %0, i64 104
  %3 = load ptr, ptr %2, align 8
  %4 = getelementptr inbounds nuw i8, ptr %3, i64 16
  %5 = load ptr, ptr %4, align 8
  %.not = icmp eq ptr %5, null
  br i1 %.not, label %16, label %6

6:                                                ; preds = %1
  %7 = getelementptr inbounds nuw i8, ptr %5, i64 264
  %8 = load ptr, ptr %7, align 8
  %.not9 = icmp eq ptr %8, null
  br i1 %.not9, label %9, label %11

9:                                                ; preds = %6
  %10 = tail call ptr @MakePerTupleExprContext(ptr noundef nonnull %5) #12
  br label %11

11:                                               ; preds = %6, %9
  %12 = phi ptr [ %10, %9 ], [ %8, %6 ]
  %13 = getelementptr inbounds nuw i8, ptr %12, i64 8
  %14 = load ptr, ptr %13, align 8
  tail call void @ExecDropSingleTupleTableSlot(ptr noundef %14) #12
  %15 = load ptr, ptr %4, align 8
  tail call void @FreeExecutorState(ptr noundef %15) #12
  br label %16

16:                                               ; preds = %11, %1
  ret void
}